(lp1
VAnti-Mage
p2
aVAxe
p3
aVBane
p4
aVBloodseeker
p5
aVCrystal Maiden
p6
aVDrow Ranger
p7
aVEarthshaker
p8
aVJuggernaut
p9
aVMirana
p10
aVMorphling
p11
aVShadow Fiend
p12
aVPhantom Lancer
p13
aVPuck
p14
aVPudge
p15
aVRazor
p16
aVSand King
p17
aVStorm Spirit
p18
aVSven
p19
aVTiny
p20
aVVengeful Spirit
p21
aVWindrunner
p22
aVZeus
p23
aVKunkka
p24
aS''
aVLina
p25
aVLion
p26
aVShadow Shaman
p27
aVSlardar
p28
aVTidehunter
p29
aVWitch Doctor
p30
aVLich
p31
aVRiki
p32
aVEnigma
p33
aVTinker
p34
aVSniper
p35
aVNecrolyte
p36
aVWarlock
p37
aVBeastmaster
p38
aVQueen of Pain
p39
aVVenomancer
p40
aVFaceless Void
p41
aVSkeleton King
p42
aVDeath Prophet
p43
aVPhantom Assassin
p44
aVPugna
p45
aVTemplar Assassin
p46
aVViper
p47
aVLuna
p48
aVDragon Knight
p49
aVDazzle
p50
aVClockwerk
p51
aVLeshrac
p52
aVNature's Prophet
p53
aVLifestealer
p54
aVDark Seer
p55
aVClinkz
p56
aVOmniknight
p57
aVEnchantress
p58
aVHuskar
p59
aVNight Stalker
p60
aVBroodmother
p61
aVBounty Hunter
p62
aVWeaver
p63
aVJakiro
p64
aVBatrider
p65
aVChen
p66
aVSpectre
p67
aVAncient Apparition
p68
aVDoom Bringer
p69
aVUrsa
p70
aVSpirit Breaker
p71
aVGyrocopter
p72
aVAlchemist
p73
aVInvoker
p74
aVSilencer
p75
aVOutworld Destroyer
p76
aVLycanthrope
p77
aVBrewmaster
p78
aVShadow Demon
p79
aVLone Druid
p80
aVChaos Knight
p81
aVMeepo
p82
aVTreant Protector
p83
aVOgre Magi
p84
aVUndying
p85
aVRubick
p86
aVDisruptor
p87
aVNyx Assassin
p88
aVNaga Siren
p89
aVKeeper of the Light
p90
aVWisp
p91
aVVisage
p92
aVSlark
p93
aS'Medusa'
p94
aS'Troll Warlord'
p95
aS'Centaur Warrunner'
p96
aS'Magnus'
p97
aS'Timbersaw'
p98
aS'Bristleback'
p99
aS'Tusk'
p100
aS'Skywrath Mage'
p101
aS'Abaddon'
p102
aS'Elder Titan'
p103
aS'Legion Commander'
p104
aS'Techies'
p105
aS'Ember Spirit'
p106
aS'Earth Spirit'
p107
aS''
aS'Terrorblade'
p108
aS'Phoenix'
p109
aS'Oracle'
p110
aS'Winter Wyvern'
p111
a.